; Function Attrs: nounwind uwtable
define ptr @Cgt_ManBuildClockGate(ptr noundef %0, ptr noundef readonly captures(none) %1) local_unnamed_addr #0 {
  %3 = getelementptr i8, ptr %0, i64 48
  %.val17 = load ptr, ptr %3, align 8, !tbaa !55
  %4 = ptrtoint ptr %.val17 to i64
  %5 = xor i64 %4, 1
  %6 = inttoptr i64 %5 to ptr
  %7 = getelementptr i8, ptr %1, i64 4
  %.val1618 = load i32, ptr %7, align 4, !tbaa !28
  %8 = icmp sgt i32 %.val1618, 0
  br i1 %8, label %.lr.ph, label %.critedge

.lr.ph:                                           ; preds = %2
  %9 = getelementptr i8, ptr %1, i64 8
  br label %10

10:                                               ; preds = %.lr.ph, %20
  %indvars.iv = phi i64 [ 0, %.lr.ph ], [ %indvars.iv.next, %20 ]
  %.01419 = phi ptr [ %6, %.lr.ph ], [ %24, %20 ]
  %.val = load ptr, ptr %9, align 8, !tbaa !31
  %11 = getelementptr inbounds nuw ptr, ptr %.val, i64 %indvars.iv
  %12 = load ptr, ptr %11, align 8, !tbaa !32
  %13 = ptrtoint ptr %12 to i64
  %14 = and i64 %13, -2
  %15 = inttoptr i64 %14 to ptr
  %16 = load ptr, ptr %15, align 8, !tbaa !51
  %.not = icmp eq ptr %16, null
  br i1 %.not, label %17, label %20

17:                                               ; preds = %10
  %18 = getelementptr inbounds nuw i8, ptr %15, i64 40
  %19 = load ptr, ptr %18, align 8, !tbaa !51
  br label %20

20:                                               ; preds = %10, %17
  %.sink23 = phi ptr [ %19, %17 ], [ %16, %10 ]
  %21 = and i64 %13, 1
  %22 = ptrtoint ptr %.sink23 to i64
  %23 = xor i64 %21, %22
  %.015 = inttoptr i64 %23 to ptr
  %24 = tail call ptr @Aig_Or(ptr noundef %0, ptr noundef %.01419, ptr noundef %.015) #13
  %indvars.iv.next = add nuw nsw i64 %indvars.iv, 1
  %.val16 = load i32, ptr %7, align 4, !tbaa !28
  %25 = sext i32 %.val16 to i64
  %26 = icmp slt i64 %indvars.iv.next, %25
  br i1 %26, label %10, label %.critedge, !llvm.loop !77

.critedge:                                        ; preds = %20, %2
  %.014.lcssa = phi ptr [ %6, %2 ], [ %24, %20 ]
  ret ptr %.014.lcssa
}